target datalayout = "e-m:e-p270:32:32-p271:32:32-p272:64:64-i64:64-i128:128-f80:128-n8:16:32:64-S128"
target triple = "x86_64-pc-linux-gnu"

%struct.lua_State = type { i8, i8, i8, i8, i8, i8, i8, ptr, ptr, ptr, ptr, ptr, ptr, ptr, ptr, i32, i32, i16, i16, i32, ptr, ptr, ptr, ptr, ptr }
%struct.lua_TValue = type { %union.Value, [1 x i32], i32 }
%union.Value = type { ptr }
%struct.luaL_Strbuf = type { ptr, ptr, ptr, ptr, [512 x i8] }

@.str.18 = private unnamed_addr constant [1 x i8] zeroinitializer, align 1

; Function Attrs: mustprogress uwtable
define internal noundef i32 @_ZL7tconcatP9lua_State(ptr noundef %0) #0 {
  %2 = alloca ptr, align 8
  %3 = alloca i64, align 8
  %4 = alloca ptr, align 8
  %5 = alloca i32, align 4
  %6 = alloca i32, align 4
  %7 = alloca ptr, align 8
  %8 = alloca %struct.luaL_Strbuf, align 8
  store ptr %0, ptr %2, align 8, !tbaa !4
  call void @llvm.lifetime.start.p0(i64 8, ptr %3) #7
  call void @llvm.lifetime.start.p0(i64 8, ptr %4) #7
  %9 = load ptr, ptr %2, align 8, !tbaa !4
  %10 = call noundef ptr @_Z15luaL_optlstringP9lua_StateiPKcPm(ptr noundef %9, i32 noundef 2, ptr noundef @.str.18, ptr noundef %3)
  store ptr %10, ptr %4, align 8, !tbaa !34
  %11 = load ptr, ptr %2, align 8, !tbaa !4
  call void @_Z14luaL_checktypeP9lua_Stateii(ptr noundef %11, i32 noundef 1, i32 noundef 6)
  call void @llvm.lifetime.start.p0(i64 4, ptr %5) #7
  %12 = load ptr, ptr %2, align 8, !tbaa !4
  %13 = call noundef i32 @_Z15luaL_optintegerP9lua_Stateii(ptr noundef %12, i32 noundef 3, i32 noundef 1)
  store i32 %13, ptr %5, align 4, !tbaa !23
  call void @llvm.lifetime.start.p0(i64 4, ptr %6) #7
  %14 = load ptr, ptr %2, align 8, !tbaa !4
  %15 = call noundef i32 @_Z8lua_typeP9lua_Statei(ptr noundef %14, i32 noundef 4)
  %16 = icmp sle i32 %15, 0
  br i1 %16, label %17, label %20

17:                                               ; preds = %1
  %18 = load ptr, ptr %2, align 8, !tbaa !4
  %19 = call noundef i32 @_Z10lua_objlenP9lua_Statei(ptr noundef %18, i32 noundef 1)
  br label %23

20:                                               ; preds = %1
  %21 = load ptr, ptr %2, align 8, !tbaa !4
  %22 = call noundef i32 @_Z17luaL_checkintegerP9lua_Statei(ptr noundef %21, i32 noundef 4)
  br label %23

23:                                               ; preds = %20, %17
  %24 = phi i32 [ %19, %17 ], [ %22, %20 ]
  store i32 %24, ptr %6, align 4, !tbaa !23
  call void @llvm.lifetime.start.p0(i64 8, ptr %7) #7
  %25 = load ptr, ptr %2, align 8, !tbaa !4
  %26 = getelementptr inbounds nuw %struct.lua_State, ptr %25, i32 0, i32 8
  %27 = load ptr, ptr %26, align 8, !tbaa !9
  %28 = getelementptr inbounds nuw %struct.lua_TValue, ptr %27, i32 0, i32 0
  %29 = load ptr, ptr %28, align 8, !tbaa !21
  store ptr %29, ptr %7, align 8, !tbaa !22
  call void @llvm.lifetime.start.p0(i64 544, ptr %8) #7
  %30 = load ptr, ptr %2, align 8, !tbaa !4
  call void @_Z13luaL_buffinitP9lua_StateP11luaL_Strbuf(ptr noundef %30, ptr noundef %8)
  br label %31

31:                                               ; preds = %45, %23
  %32 = load i32, ptr %5, align 4, !tbaa !23
  %33 = load i32, ptr %6, align 4, !tbaa !23
  %34 = icmp slt i32 %32, %33
  br i1 %34, label %35, label %48

35:                                               ; preds = %31
  %36 = load ptr, ptr %2, align 8, !tbaa !4
  %37 = load i32, ptr %5, align 4, !tbaa !23
  %38 = load ptr, ptr %7, align 8, !tbaa !22
  call void @_ZL8addfieldP9lua_StateP11luaL_StrbufiP8LuaTable(ptr noundef %36, ptr noundef %8, i32 noundef %37, ptr noundef %38)
  %39 = load i64, ptr %3, align 8, !tbaa !36
  %40 = icmp ne i64 %39, 0
  br i1 %40, label %41, label %44

41:                                               ; preds = %35
  %42 = load ptr, ptr %4, align 8, !tbaa !34
  %43 = load i64, ptr %3, align 8, !tbaa !36
  call void @_Z15luaL_addlstringP11luaL_StrbufPKcm(ptr noundef %8, ptr noundef %42, i64 noundef %43)
  br label %44

44:                                               ; preds = %41, %35
  br label %45

45:                                               ; preds = %44
  %46 = load i32, ptr %5, align 4, !tbaa !23
  %47 = add nsw i32 %46, 1
  store i32 %47, ptr %5, align 4, !tbaa !23
  br label %31, !llvm.loop !38

48:                                               ; preds = %31
  %49 = load i32, ptr %5, align 4, !tbaa !23
  %50 = load i32, ptr %6, align 4, !tbaa !23
  %51 = icmp eq i32 %49, %50
  br i1 %51, label %52, label %56

52:                                               ; preds = %48
  %53 = load ptr, ptr %2, align 8, !tbaa !4
  %54 = load i32, ptr %5, align 4, !tbaa !23
  %55 = load ptr, ptr %7, align 8, !tbaa !22
  call void @_ZL8addfieldP9lua_StateP11luaL_StrbufiP8LuaTable(ptr noundef %53, ptr noundef %8, i32 noundef %54, ptr noundef %55)
  br label %56

56:                                               ; preds = %52, %48
  call void @_Z15luaL_pushresultP11luaL_Strbuf(ptr noundef %8)
  call void @llvm.lifetime.end.p0(i64 544, ptr %8) #7
  call void @llvm.lifetime.end.p0(i64 8, ptr %7) #7
  call void @llvm.lifetime.end.p0(i64 4, ptr %6) #7
  call void @llvm.lifetime.end.p0(i64 4, ptr %5) #7
  call void @llvm.lifetime.end.p0(i64 8, ptr %4) #7
  call void @llvm.lifetime.end.p0(i64 8, ptr %3) #7
  ret i32 1
}