; Function Attrs: mustprogress uwtable
define internal noundef i32 @_ZL7tconcatP9lua_State(ptr noundef %0) #0 {
  %2 = alloca i64, align 8
  %3 = alloca %struct.luaL_Strbuf, align 8
  call void @llvm.lifetime.start.p0(i64 8, ptr nonnull %2) #7
  %4 = call noundef ptr @_Z15luaL_optlstringP9lua_StateiPKcPm(ptr noundef %0, i32 noundef 2, ptr noundef nonnull @.str.18, ptr noundef nonnull %2)
  call void @_Z14luaL_checktypeP9lua_Stateii(ptr noundef %0, i32 noundef 1, i32 noundef 6)
  %5 = call noundef i32 @_Z15luaL_optintegerP9lua_Stateii(ptr noundef %0, i32 noundef 3, i32 noundef 1)
  %6 = call noundef i32 @_Z8lua_typeP9lua_Statei(ptr noundef %0, i32 noundef 4)
  %7 = icmp slt i32 %6, 1
  br i1 %7, label %8, label %10

8:                                                ; preds = %1
  %9 = call noundef i32 @_Z10lua_objlenP9lua_Statei(ptr noundef %0, i32 noundef 1)
  br label %12

10:                                               ; preds = %1
  %11 = call noundef i32 @_Z17luaL_checkintegerP9lua_Statei(ptr noundef %0, i32 noundef 4)
  br label %12

12:                                               ; preds = %10, %8
  %13 = phi i32 [ %9, %8 ], [ %11, %10 ]
  %14 = getelementptr inbounds nuw i8, ptr %0, i64 16
  %15 = load ptr, ptr %14, align 8, !tbaa !4
  %16 = load ptr, ptr %15, align 8, !tbaa !19
  call void @llvm.lifetime.start.p0(i64 544, ptr nonnull %3) #7
  call void @_Z13luaL_buffinitP9lua_StateP11luaL_Strbuf(ptr noundef %0, ptr noundef nonnull %3)
  %17 = icmp slt i32 %5, %13
  br i1 %17, label %.lr.ph, label %._crit_edge

.lr.ph:                                           ; preds = %12, %20
  %.021 = phi i32 [ %21, %20 ], [ %5, %12 ]
  call fastcc void @_ZL8addfieldP9lua_StateP11luaL_StrbufiP8LuaTable(ptr noundef %0, ptr noundef %3, i32 noundef %.021, ptr noundef %16)
  %18 = load i64, ptr %2, align 8, !tbaa !30
  %.not = icmp eq i64 %18, 0
  br i1 %.not, label %20, label %19

19:                                               ; preds = %.lr.ph
  call void @_Z15luaL_addlstringP11luaL_StrbufPKcm(ptr noundef nonnull %3, ptr noundef %4, i64 noundef %18)
  br label %20

20:                                               ; preds = %.lr.ph, %19
  %21 = add i32 %.021, 1
  %exitcond.not = icmp eq i32 %21, %13
  br i1 %exitcond.not, label %._crit_edge.thread, label %.lr.ph, !llvm.loop !32

._crit_edge:                                      ; preds = %12
  %22 = icmp eq i32 %5, %13
  br i1 %22, label %._crit_edge.thread, label %23

._crit_edge.thread:                               ; preds = %20, %._crit_edge
  call fastcc void @_ZL8addfieldP9lua_StateP11luaL_StrbufiP8LuaTable(ptr noundef %0, ptr noundef %3, i32 noundef %13, ptr noundef %16)
  br label %23

23:                                               ; preds = %._crit_edge.thread, %._crit_edge
  call void @_Z15luaL_pushresultP11luaL_Strbuf(ptr noundef nonnull %3)
  call void @llvm.lifetime.end.p0(i64 544, ptr nonnull %3) #7
  call void @llvm.lifetime.end.p0(i64 8, ptr nonnull %2) #7
  ret i32 1
}